; Function Attrs: mustprogress nofree norecurse nosync nounwind willreturn memory(read, inaccessiblemem: none) uwtable
define noundef i32 @_ZNK6icu_7517UCharsTrieBuilder15getElementValueEi(ptr nocapture noundef nonnull readonly align 8 dereferenceable(112) %this, i32 noundef %i) unnamed_addr #7 align 2 {
entry:
  %elements = getelementptr inbounds i8, ptr %this, i64 80
  %0 = load ptr, ptr %elements, align 8
  %idxprom = sext i32 %i to i64
  %value.i = getelementptr inbounds %"class.icu_75::UCharsTrieElement", ptr %0, i64 %idxprom, i32 1
  %1 = load i32, ptr %value.i, align 4
  ret i32 %1
}